; Function Attrs: nounwind uwtable
define void @ff_cbs_trace_write_log(ptr noundef readonly captures(none) %0, ptr noundef readonly captures(none) %1, i32 noundef %2, ptr noundef readonly captures(none) %3, ptr noundef readonly captures(address_is_null) %4, i64 noundef %5) local_unnamed_addr #3 {
  %7 = alloca %struct.GetBitContext, align 8
  call void @llvm.lifetime.start.p0(i64 32, ptr nonnull %7) #10
  %8 = icmp sgt i32 %2, 0
  br i1 %8, label %9, label %flush_put_bits.exit

9:                                                ; preds = %6
  %.sroa.9.0..sroa_idx = getelementptr inbounds nuw i8, ptr %1, i64 4
  %.sroa.9.0.copyload = load i32, ptr %.sroa.9.0..sroa_idx, align 4, !tbaa !59
  %.sroa.15.0..sroa_idx = getelementptr inbounds nuw i8, ptr %1, i64 24
  %.sroa.15.0.copyload = load ptr, ptr %.sroa.15.0..sroa_idx, align 8, !tbaa !103
  %10 = icmp slt i32 %.sroa.9.0.copyload, 32
  br i1 %10, label %.lr.ph.i, label %flush_put_bits.exit

.lr.ph.i:                                         ; preds = %9
  %.sroa.1318.0..sroa_idx = getelementptr inbounds nuw i8, ptr %1, i64 16
  %.sroa.1318.0.copyload = load ptr, ptr %.sroa.1318.0..sroa_idx, align 8, !tbaa !103
  %.sroa.0.0.copyload = load i32, ptr %1, align 8, !tbaa !59
  %11 = shl i32 %.sroa.0.0.copyload, %.sroa.9.0.copyload
  br label %12

12:                                               ; preds = %15, %.lr.ph.i
  %.sroa.1318.0 = phi ptr [ %.sroa.1318.0.copyload, %.lr.ph.i ], [ %18, %15 ]
  %.sroa.9.0 = phi i32 [ %.sroa.9.0.copyload, %.lr.ph.i ], [ %20, %15 ]
  %.sroa.0.0 = phi i32 [ %11, %.lr.ph.i ], [ %19, %15 ]
  %13 = icmp ult ptr %.sroa.1318.0, %.sroa.15.0.copyload
  br i1 %13, label %15, label %14

14:                                               ; preds = %12
  tail call void (ptr, i32, ptr, ...) @av_log(ptr noundef null, i32 noundef 0, ptr noundef nonnull @.str.1, ptr noundef nonnull @.str.33, ptr noundef nonnull @.str.34, i32 noundef 150) #10
  tail call void @abort() #11
  unreachable

15:                                               ; preds = %12
  %16 = lshr i32 %.sroa.0.0, 24
  %17 = trunc nuw i32 %16 to i8
  %18 = getelementptr inbounds nuw i8, ptr %.sroa.1318.0, i64 1
  store i8 %17, ptr %.sroa.1318.0, align 1, !tbaa !91
  %19 = shl i32 %.sroa.0.0, 8
  %20 = add nsw i32 %.sroa.9.0, 8
  %21 = icmp slt i32 %.sroa.9.0, 24
  br i1 %21, label %12, label %flush_put_bits.exit, !llvm.loop !92

flush_put_bits.exit:                              ; preds = %15, %9, %6
  %22 = getelementptr inbounds nuw i8, ptr %1, i64 16
  %23 = load ptr, ptr %22, align 8, !tbaa !86
  %24 = getelementptr inbounds nuw i8, ptr %1, i64 8
  %25 = load ptr, ptr %24, align 8, !tbaa !83
  %26 = ptrtoint ptr %23 to i64
  %27 = ptrtoint ptr %25 to i64
  %28 = sub i64 %26, %27
  %29 = getelementptr inbounds nuw i8, ptr %1, i64 4
  %30 = load i32, ptr %29, align 4, !tbaa !87
  %.tr.i = trunc i64 %28 to i32
  %31 = shl i32 %.tr.i, 3
  %reass.sub.i = sub i32 %31, %30
  %32 = add i32 %reass.sub.i, 32
  %.not = icmp slt i32 %32, %2
  br i1 %.not, label %33, label %34

33:                                               ; preds = %flush_put_bits.exit
  tail call void (ptr, i32, ptr, ...) @av_log(ptr noundef null, i32 noundef 0, ptr noundef nonnull @.str.1, ptr noundef nonnull @.str.15, ptr noundef nonnull @.str.3, i32 noundef 601) #10
  tail call void @abort() #11
  unreachable

34:                                               ; preds = %flush_put_bits.exit
  %or.cond.i = icmp ult i32 %32, 2147483135
  %35 = icmp ne ptr %25, null
  %or.cond3.i = and i1 %35, %or.cond.i
  %.018.i = select i1 %or.cond3.i, i32 %32, i32 0
  %.017.i = select i1 %or.cond.i, ptr %25, ptr null
  %36 = add nuw nsw i32 %.018.i, 7
  %37 = lshr i32 %36, 3
  store ptr %.017.i, ptr %7, align 8, !tbaa !98
  %38 = getelementptr inbounds nuw i8, ptr %7, i64 20
  store i32 %.018.i, ptr %38, align 4, !tbaa !104
  %39 = add nuw nsw i32 %.018.i, 8
  %40 = getelementptr inbounds nuw i8, ptr %7, i64 24
  store i32 %39, ptr %40, align 8, !tbaa !99
  %41 = zext nneg i32 %37 to i64
  %42 = getelementptr inbounds nuw i8, ptr %.017.i, i64 %41
  %43 = getelementptr inbounds nuw i8, ptr %7, i64 8
  store ptr %42, ptr %43, align 8, !tbaa !105
  %44 = getelementptr inbounds nuw i8, ptr %7, i64 16
  %45 = sub nsw i32 %32, %2
  %..i.i = tail call i32 @llvm.smin.i32(i32 %45, i32 %39)
  store i32 %..i.i, ptr %44, align 8, !tbaa !96
  call void @ff_cbs_trace_read_log(ptr noundef %0, ptr noundef nonnull %7, i32 noundef %2, ptr noundef %3, ptr noundef %4, i64 noundef %5)
  call void @llvm.lifetime.end.p0(i64 32, ptr nonnull %7) #10
  ret void
}